target datalayout = "e-m:e-p270:32:32-p271:32:32-p272:64:64-i64:64-i128:128-f80:128-n8:16:32:64-S128"
target triple = "x86_64-pc-linux-gnu"

%struct._fcgi_request = type { i32, i32, i32, i32, i32, i32, i32, i32, i32, ptr, ptr, [8192 x i8], [16 x i8], %struct._fcgi_req_hook, i32, %struct._fcgi_hash }
%struct._fcgi_req_hook = type { ptr, ptr, ptr }
%struct._fcgi_hash = type { [128 x ptr], ptr, ptr, ptr }
%struct._fcgi_hash_buckets = type { i32, ptr, [128 x %struct._fcgi_hash_bucket] }
%struct._fcgi_hash_bucket = type { i32, i32, ptr, i32, ptr, ptr, ptr }
%struct._fcgi_data_seg = type { ptr, ptr, ptr, [1 x i8] }

; Function Attrs: nounwind uwtable
define internal void @fcgi_hash_init(ptr noundef %0) #0 {
  %2 = alloca ptr, align 8
  store ptr %0, ptr %2, align 8
  %3 = load ptr, ptr %2, align 8
  %4 = getelementptr inbounds %struct._fcgi_hash, ptr %3, i32 0, i32 0
  %5 = getelementptr inbounds [128 x ptr], ptr %4, i64 0, i64 0
  call void @llvm.memset.p0.i64(ptr align 8 %5, i8 0, i64 1024, i1 false)
  %6 = load ptr, ptr %2, align 8
  %7 = getelementptr inbounds %struct._fcgi_hash, ptr %6, i32 0, i32 1
  store ptr null, ptr %7, align 8
  %8 = call noalias ptr @malloc(i64 noundef 6160) #15
  %9 = load ptr, ptr %2, align 8
  %10 = getelementptr inbounds %struct._fcgi_hash, ptr %9, i32 0, i32 2
  store ptr %8, ptr %10, align 8
  %11 = load ptr, ptr %2, align 8
  %12 = getelementptr inbounds %struct._fcgi_hash, ptr %11, i32 0, i32 2
  %13 = load ptr, ptr %12, align 8
  %14 = getelementptr inbounds %struct._fcgi_hash_buckets, ptr %13, i32 0, i32 0
  store i32 0, ptr %14, align 8
  %15 = load ptr, ptr %2, align 8
  %16 = getelementptr inbounds %struct._fcgi_hash, ptr %15, i32 0, i32 2
  %17 = load ptr, ptr %16, align 8
  %18 = getelementptr inbounds %struct._fcgi_hash_buckets, ptr %17, i32 0, i32 1
  store ptr null, ptr %18, align 8
  %19 = call noalias ptr @malloc(i64 noundef 4127) #15
  %20 = load ptr, ptr %2, align 8
  %21 = getelementptr inbounds %struct._fcgi_hash, ptr %20, i32 0, i32 3
  store ptr %19, ptr %21, align 8
  %22 = load ptr, ptr %2, align 8
  %23 = getelementptr inbounds %struct._fcgi_hash, ptr %22, i32 0, i32 3
  %24 = load ptr, ptr %23, align 8
  %25 = getelementptr inbounds %struct._fcgi_data_seg, ptr %24, i32 0, i32 3
  %26 = getelementptr inbounds [1 x i8], ptr %25, i64 0, i64 0
  %27 = load ptr, ptr %2, align 8
  %28 = getelementptr inbounds %struct._fcgi_hash, ptr %27, i32 0, i32 3
  %29 = load ptr, ptr %28, align 8
  %30 = getelementptr inbounds %struct._fcgi_data_seg, ptr %29, i32 0, i32 0
  store ptr %26, ptr %30, align 8
  %31 = load ptr, ptr %2, align 8
  %32 = getelementptr inbounds %struct._fcgi_hash, ptr %31, i32 0, i32 3
  %33 = load ptr, ptr %32, align 8
  %34 = getelementptr inbounds %struct._fcgi_data_seg, ptr %33, i32 0, i32 0
  %35 = load ptr, ptr %34, align 8
  %36 = getelementptr inbounds i8, ptr %35, i64 4096
  %37 = load ptr, ptr %2, align 8
  %38 = getelementptr inbounds %struct._fcgi_hash, ptr %37, i32 0, i32 3
  %39 = load ptr, ptr %38, align 8
  %40 = getelementptr inbounds %struct._fcgi_data_seg, ptr %39, i32 0, i32 1
  store ptr %36, ptr %40, align 8
  %41 = load ptr, ptr %2, align 8
  %42 = getelementptr inbounds %struct._fcgi_hash, ptr %41, i32 0, i32 3
  %43 = load ptr, ptr %42, align 8
  %44 = getelementptr inbounds %struct._fcgi_data_seg, ptr %43, i32 0, i32 2
  store ptr null, ptr %44, align 8
  ret void
}

; Function Attrs: nounwind uwtable
define hidden ptr @fcgi_init_request(i32 noundef %0, ptr noundef %1, ptr noundef %2, ptr noundef %3) #0 {
  %5 = alloca i32, align 4
  %6 = alloca ptr, align 8
  %7 = alloca ptr, align 8
  %8 = alloca ptr, align 8
  %9 = alloca ptr, align 8
  store i32 %0, ptr %5, align 4
  store ptr %1, ptr %6, align 8
  store ptr %2, ptr %7, align 8
  store ptr %3, ptr %8, align 8
  %10 = call noalias ptr @calloc(i64 noundef 1, i64 noundef 9344) #17
  store ptr %10, ptr %9, align 8
  %11 = load i32, ptr %5, align 4
  %12 = load ptr, ptr %9, align 8
  %13 = getelementptr inbounds %struct._fcgi_request, ptr %12, i32 0, i32 0
  store i32 %11, ptr %13, align 8
  %14 = load ptr, ptr %9, align 8
  %15 = getelementptr inbounds %struct._fcgi_request, ptr %14, i32 0, i32 2
  store i32 -1, ptr %15, align 8
  %16 = load ptr, ptr %9, align 8
  %17 = getelementptr inbounds %struct._fcgi_request, ptr %16, i32 0, i32 3
  store i32 -1, ptr %17, align 4
  %18 = load ptr, ptr %9, align 8
  %19 = getelementptr inbounds %struct._fcgi_request, ptr %18, i32 0, i32 11
  %20 = getelementptr inbounds [8192 x i8], ptr %19, i64 0, i64 0
  %21 = load ptr, ptr %9, align 8
  %22 = getelementptr inbounds %struct._fcgi_request, ptr %21, i32 0, i32 10
  store ptr %20, ptr %22, align 8
  %23 = load ptr, ptr %6, align 8
  %24 = icmp ne ptr %23, null
  br i1 %24, label %25, label %27

25:                                               ; preds = %4
  %26 = load ptr, ptr %6, align 8
  br label %28

27:                                               ; preds = %4
  br label %28

28:                                               ; preds = %27, %25
  %29 = phi ptr [ %26, %25 ], [ @fcgi_hook_dummy, %27 ]
  %30 = load ptr, ptr %9, align 8
  %31 = getelementptr inbounds %struct._fcgi_request, ptr %30, i32 0, i32 13
  %32 = getelementptr inbounds %struct._fcgi_req_hook, ptr %31, i32 0, i32 0
  store ptr %29, ptr %32, align 8
  %33 = load ptr, ptr %7, align 8
  %34 = icmp ne ptr %33, null
  br i1 %34, label %35, label %37

35:                                               ; preds = %28
  %36 = load ptr, ptr %7, align 8
  br label %38

37:                                               ; preds = %28
  br label %38

38:                                               ; preds = %37, %35
  %39 = phi ptr [ %36, %35 ], [ @fcgi_hook_dummy, %37 ]
  %40 = load ptr, ptr %9, align 8
  %41 = getelementptr inbounds %struct._fcgi_request, ptr %40, i32 0, i32 13
  %42 = getelementptr inbounds %struct._fcgi_req_hook, ptr %41, i32 0, i32 1
  store ptr %39, ptr %42, align 8
  %43 = load ptr, ptr %8, align 8
  %44 = icmp ne ptr %43, null
  br i1 %44, label %45, label %47

45:                                               ; preds = %38
  %46 = load ptr, ptr %8, align 8
  br label %48

47:                                               ; preds = %38
  br label %48

48:                                               ; preds = %47, %45
  %49 = phi ptr [ %46, %45 ], [ @fcgi_hook_dummy, %47 ]
  %50 = load ptr, ptr %9, align 8
  %51 = getelementptr inbounds %struct._fcgi_request, ptr %50, i32 0, i32 13
  %52 = getelementptr inbounds %struct._fcgi_req_hook, ptr %51, i32 0, i32 2
  store ptr %49, ptr %52, align 8
  %53 = load ptr, ptr %9, align 8
  %54 = getelementptr inbounds %struct._fcgi_request, ptr %53, i32 0, i32 15
  call void @fcgi_hash_init(ptr noundef %54)
  %55 = load ptr, ptr %9, align 8
  ret ptr %55
}