; Function Attrs: mustprogress nofree nounwind willreturn memory(write, argmem: none, inaccessiblemem: readwrite) uwtable
define hidden noundef ptr @fcgi_init_request(i32 noundef %0, ptr noundef %1, ptr noundef %2, ptr noundef %3) local_unnamed_addr #19 {
  %5 = tail call noalias dereferenceable_or_null(9344) ptr @calloc(i64 noundef 1, i64 noundef 9344) #36
  store i32 %0, ptr %5, align 8
  %6 = getelementptr inbounds i8, ptr %5, i64 8
  store i32 -1, ptr %6, align 8
  %7 = getelementptr inbounds i8, ptr %5, i64 12
  store i32 -1, ptr %7, align 4
  %8 = getelementptr inbounds i8, ptr %5, i64 56
  %9 = getelementptr inbounds i8, ptr %5, i64 48
  store ptr %8, ptr %9, align 8
  %.not = icmp eq ptr %1, null
  %10 = select i1 %.not, ptr @fcgi_hook_dummy, ptr %1
  %11 = getelementptr inbounds i8, ptr %5, i64 8264
  store ptr %10, ptr %11, align 8
  %.not16 = icmp eq ptr %2, null
  %12 = select i1 %.not16, ptr @fcgi_hook_dummy, ptr %2
  %13 = getelementptr inbounds i8, ptr %5, i64 8272
  store ptr %12, ptr %13, align 8
  %.not17 = icmp eq ptr %3, null
  %14 = select i1 %.not17, ptr @fcgi_hook_dummy, ptr %3
  %15 = getelementptr inbounds i8, ptr %5, i64 8280
  store ptr %14, ptr %15, align 8
  %16 = tail call noalias dereferenceable_or_null(6160) ptr @malloc(i64 noundef 6160) #33
  %17 = getelementptr inbounds i8, ptr %5, i64 9328
  store ptr %16, ptr %17, align 8
  store i32 0, ptr %16, align 8
  %18 = getelementptr inbounds i8, ptr %16, i64 8
  store ptr null, ptr %18, align 8
  %19 = tail call noalias dereferenceable_or_null(4127) ptr @malloc(i64 noundef 4127) #33
  %20 = getelementptr inbounds i8, ptr %5, i64 9336
  store ptr %19, ptr %20, align 8
  %21 = getelementptr inbounds i8, ptr %19, i64 24
  store ptr %21, ptr %19, align 8
  %22 = getelementptr inbounds i8, ptr %19, i64 4120
  %23 = getelementptr inbounds i8, ptr %19, i64 8
  store ptr %22, ptr %23, align 8
  %24 = getelementptr inbounds i8, ptr %19, i64 16
  store ptr null, ptr %24, align 8
  ret ptr %5
}